target datalayout = "e-m:e-p270:32:32-p271:32:32-p272:64:64-i64:64-i128:128-f80:128-n8:16:32:64-S128"
target triple = "x86_64-pc-linux-gnu"

%"class.icu_77::TimeZoneTransition" = type { %"class.icu_77::UObject", double, ptr, ptr }
%"class.icu_77::UObject" = type { ptr }

@_ZTVN6icu_7718TimeZoneTransitionE = unnamed_addr constant { [5 x ptr] } { [5 x ptr] [ptr null, ptr @_ZTIN6icu_7718TimeZoneTransitionE, ptr @_ZN6icu_7718TimeZoneTransitionD1Ev, ptr @_ZN6icu_7718TimeZoneTransitionD0Ev, ptr @_ZNK6icu_7718TimeZoneTransition17getDynamicClassIDEv] }, align 8

; Function Attrs: mustprogress nounwind uwtable
define void @_ZN6icu_7718TimeZoneTransitionD2Ev(ptr noundef nonnull align 8 dereferenceable(32) %0) unnamed_addr #0 align 2 {
  %2 = alloca ptr, align 8
  store ptr %0, ptr %2, align 8, !tbaa !3
  %3 = load ptr, ptr %2, align 8
  store ptr getelementptr inbounds inrange(-16, 24) ({ [5 x ptr] }, ptr @_ZTVN6icu_7718TimeZoneTransitionE, i32 0, i32 0, i32 2), ptr %3, align 8, !tbaa !12
  %4 = getelementptr inbounds nuw %"class.icu_77::TimeZoneTransition", ptr %3, i32 0, i32 2
  %5 = load ptr, ptr %4, align 8, !tbaa !17
  %6 = icmp eq ptr %5, null
  br i1 %6, label %11, label %7

7:                                                ; preds = %1
  %8 = load ptr, ptr %5, align 8, !tbaa !12
  %9 = getelementptr inbounds ptr, ptr %8, i64 1
  %10 = load ptr, ptr %9, align 8
  call void %10(ptr noundef nonnull align 8 dereferenceable(80) %5) #6
  br label %11

11:                                               ; preds = %7, %1
  %12 = getelementptr inbounds nuw %"class.icu_77::TimeZoneTransition", ptr %3, i32 0, i32 3
  %13 = load ptr, ptr %12, align 8, !tbaa !18
  %14 = icmp eq ptr %13, null
  br i1 %14, label %19, label %15

15:                                               ; preds = %11
  %16 = load ptr, ptr %13, align 8, !tbaa !12
  %17 = getelementptr inbounds ptr, ptr %16, i64 1
  %18 = load ptr, ptr %17, align 8
  call void %18(ptr noundef nonnull align 8 dereferenceable(80) %13) #6
  br label %19

19:                                               ; preds = %15, %11
  call void @_ZN6icu_777UObjectD2Ev(ptr noundef nonnull align 8 dereferenceable(8) %3) #6
  ret void
}